ARM GAS  C:\Users\IZSOAN~1\AppData\Local\Temp\ccAKDw0U.s 			page 1


   1              		.syntax unified
   2              		.cpu cortex-m3
   3              		.fpu softvfp
   4              		.eabi_attribute 20, 1
   5              		.eabi_attribute 21, 1
   6              		.eabi_attribute 23, 3
   7              		.eabi_attribute 24, 1
   8              		.eabi_attribute 25, 1
   9              		.eabi_attribute 26, 1
  10              		.eabi_attribute 30, 1
  11              		.eabi_attribute 34, 1
  12              		.eabi_attribute 18, 4
  13              		.thumb
  14              		.syntax unified
  15              		.file	"main.c"
  16              		.text
  17              	.Ltext0:
  18              		.cfi_sections	.debug_frame
  19              		.section	.text.AdcIT,"ax",%progbits
  20              		.align	2
  21              		.global	AdcIT
  22              		.thumb
  23              		.thumb_func
  24              		.type	AdcIT, %function
  25              	AdcIT:
  26              	.LFB67:
  27              		.file 1 "main.c"
   1:main.c        **** /* ========================================
   2:main.c        ****  *
   3:main.c        ****  * Copyright YOUR COMPANY, THE YEAR
   4:main.c        ****  * All Rights Reserved
   5:main.c        ****  * UNPUBLISHED, LICENSED SOFTWARE.
   6:main.c        ****  *
   7:main.c        ****  * CONFIDENTIAL AND PROPRIETARY INFORMATION
   8:main.c        ****  * WHICH IS THE PROPERTY OF your company.
   9:main.c        ****  *
  10:main.c        ****  * ========================================
  11:main.c        **** */
  12:main.c        **** #include "project.h"
  13:main.c        **** #include <stdbool.h>
  14:main.c        **** #include "ledlight.h"
  15:main.c        **** #include <stdio.h>
  16:main.c        **** 
  17:main.c        **** #define STATE_ADDR 0
  18:main.c        **** #define SRC_ADDR 1
  19:main.c        **** 
  20:main.c        **** /**Char array to store the message we want to send on serial
  21:main.c        **** */
  22:main.c        **** char buff[40];
  23:main.c        **** /** Stores if the control is set to remote
  24:main.c        **** */
  25:main.c        **** bool terminalEnabled = false;
  26:main.c        **** /** Stores the current state of the statemachine.
  27:main.c        **** */
  28:main.c        **** LightStates currentState;
  29:main.c        **** /** Stores the next state of the statemachine.
  30:main.c        **** */
ARM GAS  C:\Users\IZSOAN~1\AppData\Local\Temp\ccAKDw0U.s 			page 2


  31:main.c        **** LightStates nextState = -1;
  32:main.c        **** /** Set the initial state of the mode switching push button.
  33:main.c        ****   * The button is active low.
  34:main.c        **** */
  35:main.c        **** bool sw_modeStatus = true;
  36:main.c        **** /** Set the initial state of the source switching push button.
  37:main.c        ****   * The button is active low.
  38:main.c        **** */
  39:main.c        **** bool sw_srcStatus = true;
  40:main.c        **** /** Enumerate to use for the audio input
  41:main.c        **** */
  42:main.c        **** typedef enum InputChannel{
  43:main.c        ****     Mic = 0,
  44:main.c        ****     Jack = 1
  45:main.c        **** } InputChannel;
  46:main.c        **** /** Currently selected channel
  47:main.c        **** */
  48:main.c        **** InputChannel srcChannel = -1;
  49:main.c        **** /** Set the audio input channel
  50:main.c        ****  * @param channel The audio channel you want to select
  51:main.c        **** */
  52:main.c        **** void setInput(InputChannel channel){
  53:main.c        ****     //if the channel is different than the current, change the variable, write to memory, set the m
  54:main.c        ****     if(channel != srcChannel){
  55:main.c        ****         srcChannel = channel;
  56:main.c        ****         EEPROM_WriteByte((uint8)srcChannel, SRC_ADDR);
  57:main.c        ****         AMux_1_Select(srcChannel);
  58:main.c        ****         
  59:main.c        ****         LED_JACK_Write(srcChannel);
  60:main.c        ****         LED_MIC_Write((srcChannel+1)%2);
  61:main.c        ****     }
  62:main.c        **** }
  63:main.c        **** /** Update the state of the main state machine
  64:main.c        **** */
  65:main.c        **** void updateState(){
  66:main.c        ****     if(currentState != nextState){
  67:main.c        ****         currentState = nextState;
  68:main.c        ****         EEPROM_WriteByte((uint8)nextState, STATE_ADDR);
  69:main.c        ****         sprintf(buff, "State changed: %d\n\r", nextState);
  70:main.c        ****         UART_PutString(buff);
  71:main.c        ****     }
  72:main.c        **** }
  73:main.c        **** 
  74:main.c        **** /** Timer interrupt which is called every 1ms.
  75:main.c        ****   * This function manages the milsec flag for the lightshows.
  76:main.c        ****   * Also handles the button presses.
  77:main.c        ****   * @param TimerIT the name of the interrupt to handle
  78:main.c        **** */
  79:main.c        **** CY_ISR(TimerIT){
  80:main.c        ****     //Store the currently selected source and the state of the buttons during the last few calls.
  81:main.c        ****     //It's used for the debouncing
  82:main.c        ****     static bool sw_modePrev[] = {true, true, true, true, true}, sw_srcPrev[] = {true, true, true, t
  83:main.c        ****     static uint8 i = 0;
  84:main.c        ****     //Clear the interrupt
  85:main.c        ****     Timer_1_STATUS;
  86:main.c        ****     milsec = true;
  87:main.c        ****     millis++;
ARM GAS  C:\Users\IZSOAN~1\AppData\Local\Temp\ccAKDw0U.s 			page 3


  88:main.c        ****    
  89:main.c        ****     if(!terminalEnabled){
  90:main.c        ****         sw_modePrev[i%5] =  SW_mode_Read();
  91:main.c        ****         bool sw_modeNow = false;
  92:main.c        ****         //Checking if any of the last 5 button reads is high.
  93:main.c        ****         for(int i = 0; i < 5; i++){
  94:main.c        ****             sw_modeNow = sw_modeNow || sw_modePrev[i];
  95:main.c        ****         }
  96:main.c        ****         //If none of the last 5 reading was high, that means the button is pressed
  97:main.c        ****         //If the button is pressed and it wasn't before change the state
  98:main.c        ****         if(!sw_modeNow && sw_modeStatus){
  99:main.c        ****             nextState = ((currentState+1)%StateNo);
 100:main.c        ****             sw_modeStatus = false;
 101:main.c        ****         //If there is at least 1 high value that means the button is not pressed or it's bouncing
 102:main.c        ****         } else if(sw_modeNow){
 103:main.c        ****             sw_modeStatus = true;
 104:main.c        ****         }
 105:main.c        ****     
 106:main.c        ****         sw_srcPrev[i%5] = SW_src_Read();
 107:main.c        ****         bool sw_srcNow = false;
 108:main.c        ****         //Checking if any of the last 5 button reads is high.
 109:main.c        ****         for(int i = 0; i < 5; i++){
 110:main.c        ****             sw_srcNow = sw_srcNow || sw_srcPrev[i];
 111:main.c        ****         }
 112:main.c        ****         //If none of the last 5 reading was high, that means the button is pressed
 113:main.c        ****         //If the button is pressed and it wasn't before change the source and the feedback LEDs.
 114:main.c        ****         if(!sw_srcNow && sw_srcStatus){
 115:main.c        ****             setInput(!srcChannel);
 116:main.c        ****             sw_srcStatus = false;
 117:main.c        ****         //If there is at least 1 high value that means the button is not pressed or it's bouncing
 118:main.c        ****         } else if(sw_srcNow){
 119:main.c        ****             sw_srcStatus = true;
 120:main.c        ****         }
 121:main.c        ****     
 122:main.c        ****     
 123:main.c        ****         i++;
 124:main.c        ****     }
 125:main.c        **** }
 126:main.c        **** /** The interrupt called when the ADC has finished a conversion
 127:main.c        ****  * @AdcIT AdcIT The name of the interrupt to handle
 128:main.c        **** */
 129:main.c        **** CY_ISR(AdcIT){
  28              		.loc 1 129 0
  29              		.cfi_startproc
  30              		@ args = 0, pretend = 0, frame = 0
  31              		@ frame_needed = 0, uses_anonymous_args = 0
  32 0000 38B5     		push	{r3, r4, r5, lr}
  33              		.cfi_def_cfa_offset 16
  34              		.cfi_offset 3, -16
  35              		.cfi_offset 4, -12
  36              		.cfi_offset 5, -8
  37              		.cfi_offset 14, -4
 130:main.c        ****     //gather samples to the buffer, and update the number of samples until we have enough
 131:main.c        ****     if(elementIndex < WINDOW_SIZE){
  38              		.loc 1 131 0
  39 0002 0A4B     		ldr	r3, .L4
  40 0004 1C88     		ldrh	r4, [r3]
ARM GAS  C:\Users\IZSOAN~1\AppData\Local\Temp\ccAKDw0U.s 			page 4


  41 0006 FF2C     		cmp	r4, #255
  42 0008 0FD8     		bhi	.L1
 132:main.c        ****         audioBuff[buffIndex][elementIndex] = ADC_GetResult32()-33000;
  43              		.loc 1 132 0
  44 000a 094B     		ldr	r3, .L4+4
  45 000c 1D78     		ldrb	r5, [r3]	@ zero_extendqisi2
  46 000e FFF7FEFF 		bl	ADC_GetResult32
  47              	.LVL0:
  48 0012 04EB0524 		add	r4, r4, r5, lsl #8
  49 0016 00F5FE40 		add	r0, r0, #32512
  50 001a 1830     		adds	r0, r0, #24
  51 001c 054B     		ldr	r3, .L4+8
  52 001e 23F81400 		strh	r0, [r3, r4, lsl #1]	@ movhi
 133:main.c        ****         elementIndex++;
  53              		.loc 1 133 0
  54 0022 024A     		ldr	r2, .L4
  55 0024 1388     		ldrh	r3, [r2]
  56 0026 0133     		adds	r3, r3, #1
  57 0028 1380     		strh	r3, [r2]	@ movhi
  58              	.L1:
  59 002a 38BD     		pop	{r3, r4, r5, pc}
  60              	.L5:
  61              		.align	2
  62              	.L4:
  63 002c 00000000 		.word	elementIndex
  64 0030 00000000 		.word	buffIndex
  65 0034 00000000 		.word	audioBuff
  66              		.cfi_endproc
  67              	.LFE67:
  68              		.size	AdcIT, .-AdcIT
  69              		.section	.text.setInput,"ax",%progbits
  70              		.align	2
  71              		.global	setInput
  72              		.thumb
  73              		.thumb_func
  74              		.type	setInput, %function
  75              	setInput:
  76              	.LFB64:
  52:main.c        ****     //if the channel is different than the current, change the variable, write to memory, set the m
  77              		.loc 1 52 0
  78              		.cfi_startproc
  79              		@ args = 0, pretend = 0, frame = 0
  80              		@ frame_needed = 0, uses_anonymous_args = 0
  81              	.LVL1:
  54:main.c        ****         srcChannel = channel;
  82              		.loc 1 54 0
  83 0000 0E4B     		ldr	r3, .L11
  84 0002 1B78     		ldrb	r3, [r3]	@ zero_extendqisi2
  85 0004 8342     		cmp	r3, r0
  86 0006 18D0     		beq	.L10
  52:main.c        ****     //if the channel is different than the current, change the variable, write to memory, set the m
  87              		.loc 1 52 0
  88 0008 10B5     		push	{r4, lr}
  89              		.cfi_def_cfa_offset 8
  90              		.cfi_offset 4, -8
  91              		.cfi_offset 14, -4
  55:main.c        ****         EEPROM_WriteByte((uint8)srcChannel, SRC_ADDR);
ARM GAS  C:\Users\IZSOAN~1\AppData\Local\Temp\ccAKDw0U.s 			page 5


  92              		.loc 1 55 0
  93 000a 0C4C     		ldr	r4, .L11
  94 000c 2070     		strb	r0, [r4]
  56:main.c        ****         AMux_1_Select(srcChannel);
  95              		.loc 1 56 0
  96 000e 0121     		movs	r1, #1
  97 0010 FFF7FEFF 		bl	EEPROM_WriteByte
  98              	.LVL2:
  57:main.c        ****         
  99              		.loc 1 57 0
 100 0014 2078     		ldrb	r0, [r4]	@ zero_extendqisi2
 101 0016 FFF7FEFF 		bl	AMux_1_FastSelect
 102              	.LVL3:
  59:main.c        ****         LED_MIC_Write((srcChannel+1)%2);
 103              		.loc 1 59 0
 104 001a 2078     		ldrb	r0, [r4]	@ zero_extendqisi2
 105 001c FFF7FEFF 		bl	LED_JACK_Write
 106              	.LVL4:
  60:main.c        ****     }
 107              		.loc 1 60 0
 108 0020 2078     		ldrb	r0, [r4]	@ zero_extendqisi2
 109 0022 431C     		adds	r3, r0, #1
 110 0024 0648     		ldr	r0, .L11+4
 111 0026 1840     		ands	r0, r3, r0
 112 0028 03D5     		bpl	.L8
 113 002a 0138     		subs	r0, r0, #1
 114 002c 60F00100 		orn	r0, r0, #1
 115 0030 0130     		adds	r0, r0, #1
 116              	.L8:
 117 0032 C0B2     		uxtb	r0, r0
 118 0034 FFF7FEFF 		bl	LED_MIC_Write
 119              	.LVL5:
 120 0038 10BD     		pop	{r4, pc}
 121              	.LVL6:
 122              	.L10:
 123              		.cfi_def_cfa_offset 0
 124              		.cfi_restore 4
 125              		.cfi_restore 14
 126 003a 7047     		bx	lr
 127              	.L12:
 128              		.align	2
 129              	.L11:
 130 003c 00000000 		.word	.LANCHOR0
 131 0040 01000080 		.word	-2147483647
 132              		.cfi_endproc
 133              	.LFE64:
 134              		.size	setInput, .-setInput
 135              		.section	.text.TimerIT,"ax",%progbits
 136              		.align	2
 137              		.global	TimerIT
 138              		.thumb
 139              		.thumb_func
 140              		.type	TimerIT, %function
 141              	TimerIT:
 142              	.LFB66:
  79:main.c        ****     //Store the currently selected source and the state of the buttons during the last few calls.
 143              		.loc 1 79 0
ARM GAS  C:\Users\IZSOAN~1\AppData\Local\Temp\ccAKDw0U.s 			page 6


 144              		.cfi_startproc
 145              		@ args = 0, pretend = 0, frame = 0
 146              		@ frame_needed = 0, uses_anonymous_args = 0
  85:main.c        ****     milsec = true;
 147              		.loc 1 85 0
 148 0000 424B     		ldr	r3, .L32
 149 0002 1B78     		ldrb	r3, [r3]	@ zero_extendqisi2
  86:main.c        ****     millis++;
 150              		.loc 1 86 0
 151 0004 0122     		movs	r2, #1
 152 0006 424B     		ldr	r3, .L32+4
 153 0008 1A70     		strb	r2, [r3]
  87:main.c        ****    
 154              		.loc 1 87 0
 155 000a 4249     		ldr	r1, .L32+8
 156 000c D1E90023 		ldrd	r2, [r1]
 157 0010 0132     		adds	r2, r2, #1
 158 0012 43F10003 		adc	r3, r3, #0
 159 0016 C1E90023 		strd	r2, [r1]
  89:main.c        ****         sw_modePrev[i%5] =  SW_mode_Read();
 160              		.loc 1 89 0
 161 001a 3F4B     		ldr	r3, .L32+12
 162 001c 1B78     		ldrb	r3, [r3]	@ zero_extendqisi2
 163 001e 002B     		cmp	r3, #0
 164 0020 72D1     		bne	.L31
  79:main.c        ****     //Store the currently selected source and the state of the buttons during the last few calls.
 165              		.loc 1 79 0
 166 0022 10B5     		push	{r4, lr}
 167              		.cfi_def_cfa_offset 8
 168              		.cfi_offset 4, -8
 169              		.cfi_offset 14, -4
 170              	.LBB2:
  90:main.c        ****         bool sw_modeNow = false;
 171              		.loc 1 90 0
 172 0024 3C4B     		ldr	r3, .L32+12
 173 0026 5B78     		ldrb	r3, [r3, #1]	@ zero_extendqisi2
 174 0028 3C4C     		ldr	r4, .L32+16
 175 002a A4FB0324 		umull	r2, r4, r4, r3
 176 002e A408     		lsrs	r4, r4, #2
 177 0030 04EB8404 		add	r4, r4, r4, lsl #2
 178 0034 1B1B     		subs	r3, r3, r4
 179 0036 DCB2     		uxtb	r4, r3
 180 0038 FFF7FEFF 		bl	SW_mode_Read
 181              	.LVL7:
 182 003c 0030     		adds	r0, r0, #0
 183 003e 18BF     		it	ne
 184 0040 0120     		movne	r0, #1
 185 0042 374B     		ldr	r3, .L32+20
 186 0044 1C44     		add	r4, r4, r3
 187 0046 2071     		strb	r0, [r4, #4]
 188              	.LVL8:
 189              	.LBB3:
  93:main.c        ****             sw_modeNow = sw_modeNow || sw_modePrev[i];
 190              		.loc 1 93 0
 191 0048 0022     		movs	r2, #0
 192              	.LBE3:
  91:main.c        ****         //Checking if any of the last 5 button reads is high.
ARM GAS  C:\Users\IZSOAN~1\AppData\Local\Temp\ccAKDw0U.s 			page 7


 193              		.loc 1 91 0
 194 004a 1346     		mov	r3, r2
 195              	.LBB4:
  93:main.c        ****             sw_modeNow = sw_modeNow || sw_modePrev[i];
 196              		.loc 1 93 0
 197 004c 0AE0     		b	.L15
 198              	.LVL9:
 199              	.L17:
  94:main.c        ****         }
 200              		.loc 1 94 0
 201 004e 2BB9     		cbnz	r3, .L26
  94:main.c        ****         }
 202              		.loc 1 94 0 is_stmt 0 discriminator 2
 203 0050 334B     		ldr	r3, .L32+20
 204              	.LVL10:
 205 0052 1344     		add	r3, r3, r2
 206 0054 1B79     		ldrb	r3, [r3, #4]	@ zero_extendqisi2
 207 0056 1BB1     		cbz	r3, .L27
  94:main.c        ****         }
 208              		.loc 1 94 0
 209 0058 0123     		movs	r3, #1
 210 005a 02E0     		b	.L16
 211              	.LVL11:
 212              	.L26:
 213 005c 0123     		movs	r3, #1
 214              	.LVL12:
 215 005e 00E0     		b	.L16
 216              	.L27:
 217 0060 0023     		movs	r3, #0
 218              	.L16:
 219              	.LVL13:
  93:main.c        ****             sw_modeNow = sw_modeNow || sw_modePrev[i];
 220              		.loc 1 93 0 is_stmt 1 discriminator 6
 221 0062 0132     		adds	r2, r2, #1
 222              	.LVL14:
 223              	.L15:
  93:main.c        ****             sw_modeNow = sw_modeNow || sw_modePrev[i];
 224              		.loc 1 93 0 is_stmt 0 discriminator 2
 225 0064 042A     		cmp	r2, #4
 226 0066 F2DD     		ble	.L17
 227              	.LBE4:
  98:main.c        ****             nextState = ((currentState+1)%StateNo);
 228              		.loc 1 98 0 is_stmt 1
 229 0068 8BB9     		cbnz	r3, .L18
  98:main.c        ****             nextState = ((currentState+1)%StateNo);
 230              		.loc 1 98 0 is_stmt 0 discriminator 1
 231 006a 2D4A     		ldr	r2, .L32+20
 232              	.LVL15:
 233 006c 527A     		ldrb	r2, [r2, #9]	@ zero_extendqisi2
 234 006e 72B1     		cbz	r2, .L18
  99:main.c        ****             sw_modeStatus = false;
 235              		.loc 1 99 0 is_stmt 1
 236 0070 2C4B     		ldr	r3, .L32+24
 237              	.LVL16:
 238 0072 1B78     		ldrb	r3, [r3]	@ zero_extendqisi2
 239 0074 0133     		adds	r3, r3, #1
 240 0076 2C4A     		ldr	r2, .L32+28
ARM GAS  C:\Users\IZSOAN~1\AppData\Local\Temp\ccAKDw0U.s 			page 8


 241 0078 1340     		ands	r3, r3, r2
 242 007a 03D5     		bpl	.L19
 243 007c 013B     		subs	r3, r3, #1
 244 007e 63F00303 		orn	r3, r3, #3
 245 0082 0133     		adds	r3, r3, #1
 246              	.L19:
 247 0084 264A     		ldr	r2, .L32+20
 248 0086 9372     		strb	r3, [r2, #10]
 100:main.c        ****         //If there is at least 1 high value that means the button is not pressed or it's bouncing
 249              		.loc 1 100 0
 250 0088 0023     		movs	r3, #0
 251 008a 5372     		strb	r3, [r2, #9]
 252 008c 03E0     		b	.L20
 253              	.LVL17:
 254              	.L18:
 102:main.c        ****             sw_modeStatus = true;
 255              		.loc 1 102 0
 256 008e 13B1     		cbz	r3, .L20
 103:main.c        ****         }
 257              		.loc 1 103 0
 258 0090 0122     		movs	r2, #1
 259 0092 234B     		ldr	r3, .L32+20
 260              	.LVL18:
 261 0094 5A72     		strb	r2, [r3, #9]
 262              	.L20:
 106:main.c        ****         bool sw_srcNow = false;
 263              		.loc 1 106 0
 264 0096 204B     		ldr	r3, .L32+12
 265 0098 5B78     		ldrb	r3, [r3, #1]	@ zero_extendqisi2
 266 009a 204C     		ldr	r4, .L32+16
 267 009c A4FB0324 		umull	r2, r4, r4, r3
 268 00a0 A408     		lsrs	r4, r4, #2
 269 00a2 04EB8404 		add	r4, r4, r4, lsl #2
 270 00a6 1B1B     		subs	r3, r3, r4
 271 00a8 DCB2     		uxtb	r4, r3
 272 00aa FFF7FEFF 		bl	SW_src_Read
 273              	.LVL19:
 274 00ae 0030     		adds	r0, r0, #0
 275 00b0 18BF     		it	ne
 276 00b2 0120     		movne	r0, #1
 277 00b4 1A4B     		ldr	r3, .L32+20
 278 00b6 1C44     		add	r4, r4, r3
 279 00b8 2073     		strb	r0, [r4, #12]
 280              	.LVL20:
 281              	.LBB5:
 109:main.c        ****             sw_srcNow = sw_srcNow || sw_srcPrev[i];
 282              		.loc 1 109 0
 283 00ba 0022     		movs	r2, #0
 284              	.LBE5:
 107:main.c        ****         //Checking if any of the last 5 button reads is high.
 285              		.loc 1 107 0
 286 00bc 1346     		mov	r3, r2
 287              	.LBB6:
 109:main.c        ****             sw_srcNow = sw_srcNow || sw_srcPrev[i];
 288              		.loc 1 109 0
 289 00be 0AE0     		b	.L21
 290              	.LVL21:
ARM GAS  C:\Users\IZSOAN~1\AppData\Local\Temp\ccAKDw0U.s 			page 9


 291              	.L23:
 110:main.c        ****         }
 292              		.loc 1 110 0
 293 00c0 2BB9     		cbnz	r3, .L28
 110:main.c        ****         }
 294              		.loc 1 110 0 is_stmt 0 discriminator 2
 295 00c2 174B     		ldr	r3, .L32+20
 296              	.LVL22:
 297 00c4 1344     		add	r3, r3, r2
 298 00c6 1B7B     		ldrb	r3, [r3, #12]	@ zero_extendqisi2
 299 00c8 1BB1     		cbz	r3, .L29
 110:main.c        ****         }
 300              		.loc 1 110 0
 301 00ca 0123     		movs	r3, #1
 302 00cc 02E0     		b	.L22
 303              	.LVL23:
 304              	.L28:
 305 00ce 0123     		movs	r3, #1
 306              	.LVL24:
 307 00d0 00E0     		b	.L22
 308              	.L29:
 309 00d2 0023     		movs	r3, #0
 310              	.L22:
 311              	.LVL25:
 109:main.c        ****             sw_srcNow = sw_srcNow || sw_srcPrev[i];
 312              		.loc 1 109 0 is_stmt 1 discriminator 6
 313 00d4 0132     		adds	r2, r2, #1
 314              	.LVL26:
 315              	.L21:
 109:main.c        ****             sw_srcNow = sw_srcNow || sw_srcPrev[i];
 316              		.loc 1 109 0 is_stmt 0 discriminator 2
 317 00d6 042A     		cmp	r2, #4
 318 00d8 F2DD     		ble	.L23
 319              	.LBE6:
 114:main.c        ****             setInput(!srcChannel);
 320              		.loc 1 114 0 is_stmt 1
 321 00da 63B9     		cbnz	r3, .L24
 114:main.c        ****             setInput(!srcChannel);
 322              		.loc 1 114 0 is_stmt 0 discriminator 1
 323 00dc 104A     		ldr	r2, .L32+20
 324              	.LVL27:
 325 00de 527C     		ldrb	r2, [r2, #17]	@ zero_extendqisi2
 326 00e0 4AB1     		cbz	r2, .L24
 115:main.c        ****             sw_srcStatus = false;
 327              		.loc 1 115 0 is_stmt 1
 328 00e2 0F4C     		ldr	r4, .L32+20
 329 00e4 2078     		ldrb	r0, [r4]	@ zero_extendqisi2
 330 00e6 B0FA80F0 		clz	r0, r0
 331 00ea 4009     		lsrs	r0, r0, #5
 332 00ec FFF7FEFF 		bl	setInput
 333              	.LVL28:
 116:main.c        ****         //If there is at least 1 high value that means the button is not pressed or it's bouncing
 334              		.loc 1 116 0
 335 00f0 0023     		movs	r3, #0
 336 00f2 6374     		strb	r3, [r4, #17]
 337 00f4 03E0     		b	.L25
 338              	.LVL29:
ARM GAS  C:\Users\IZSOAN~1\AppData\Local\Temp\ccAKDw0U.s 			page 10


 339              	.L24:
 118:main.c        ****             sw_srcStatus = true;
 340              		.loc 1 118 0
 341 00f6 13B1     		cbz	r3, .L25
 119:main.c        ****         }
 342              		.loc 1 119 0
 343 00f8 0122     		movs	r2, #1
 344 00fa 094B     		ldr	r3, .L32+20
 345              	.LVL30:
 346 00fc 5A74     		strb	r2, [r3, #17]
 347              	.L25:
 123:main.c        ****     }
 348              		.loc 1 123 0
 349 00fe 064A     		ldr	r2, .L32+12
 350 0100 5378     		ldrb	r3, [r2, #1]	@ zero_extendqisi2
 351 0102 0133     		adds	r3, r3, #1
 352 0104 5370     		strb	r3, [r2, #1]
 353 0106 10BD     		pop	{r4, pc}
 354              	.L31:
 355              		.cfi_def_cfa_offset 0
 356              		.cfi_restore 4
 357              		.cfi_restore 14
 358 0108 7047     		bx	lr
 359              	.L33:
 360 010a 00BF     		.align	2
 361              	.L32:
 362 010c 274F0040 		.word	1073762087
 363 0110 00000000 		.word	milsec
 364 0114 00000000 		.word	millis
 365 0118 00000000 		.word	.LANCHOR1
 366 011c CDCCCCCC 		.word	-858993459
 367 0120 00000000 		.word	.LANCHOR0
 368 0124 00000000 		.word	currentState
 369 0128 03000080 		.word	-2147483645
 370              	.LBE2:
 371              		.cfi_endproc
 372              	.LFE66:
 373              		.size	TimerIT, .-TimerIT
 374              		.section	.text.updateState,"ax",%progbits
 375              		.align	2
 376              		.global	updateState
 377              		.thumb
 378              		.thumb_func
 379              		.type	updateState, %function
 380              	updateState:
 381              	.LFB65:
  65:main.c        ****     if(currentState != nextState){
 382              		.loc 1 65 0
 383              		.cfi_startproc
 384              		@ args = 0, pretend = 0, frame = 0
 385              		@ frame_needed = 0, uses_anonymous_args = 0
  66:main.c        ****         currentState = nextState;
 386              		.loc 1 66 0
 387 0000 0B4B     		ldr	r3, .L38
 388 0002 1B78     		ldrb	r3, [r3]	@ zero_extendqisi2
 389 0004 0B4A     		ldr	r2, .L38+4
 390 0006 907A     		ldrb	r0, [r2, #10]	@ zero_extendqisi2
ARM GAS  C:\Users\IZSOAN~1\AppData\Local\Temp\ccAKDw0U.s 			page 11


 391 0008 8342     		cmp	r3, r0
 392 000a 10D0     		beq	.L37
  65:main.c        ****     if(currentState != nextState){
 393              		.loc 1 65 0
 394 000c 10B5     		push	{r4, lr}
 395              		.cfi_def_cfa_offset 8
 396              		.cfi_offset 4, -8
 397              		.cfi_offset 14, -4
  67:main.c        ****         EEPROM_WriteByte((uint8)nextState, STATE_ADDR);
 398              		.loc 1 67 0
 399 000e 084B     		ldr	r3, .L38
 400 0010 1870     		strb	r0, [r3]
  68:main.c        ****         sprintf(buff, "State changed: %d\n\r", nextState);
 401              		.loc 1 68 0
 402 0012 0021     		movs	r1, #0
 403 0014 FFF7FEFF 		bl	EEPROM_WriteByte
 404              	.LVL31:
  69:main.c        ****         UART_PutString(buff);
 405              		.loc 1 69 0
 406 0018 074C     		ldr	r4, .L38+8
 407 001a 064B     		ldr	r3, .L38+4
 408 001c 9A7A     		ldrb	r2, [r3, #10]	@ zero_extendqisi2
 409 001e 0749     		ldr	r1, .L38+12
 410 0020 2046     		mov	r0, r4
 411 0022 FFF7FEFF 		bl	sprintf
 412              	.LVL32:
  70:main.c        ****     }
 413              		.loc 1 70 0
 414 0026 2046     		mov	r0, r4
 415 0028 FFF7FEFF 		bl	UART_PutString
 416              	.LVL33:
 417 002c 10BD     		pop	{r4, pc}
 418              	.L37:
 419              		.cfi_def_cfa_offset 0
 420              		.cfi_restore 4
 421              		.cfi_restore 14
 422 002e 7047     		bx	lr
 423              	.L39:
 424              		.align	2
 425              	.L38:
 426 0030 00000000 		.word	currentState
 427 0034 00000000 		.word	.LANCHOR0
 428 0038 00000000 		.word	buff
 429 003c 00000000 		.word	.LC0
 430              		.cfi_endproc
 431              	.LFE65:
 432              		.size	updateState, .-updateState
 433              		.section	.text.init,"ax",%progbits
 434              		.align	2
 435              		.global	init
 436              		.thumb
 437              		.thumb_func
 438              		.type	init, %function
 439              	init:
 440              	.LFB68:
 134:main.c        ****         //sprintf(buff, "%ld\r\n", ADC_GetResult32()-32768);
 135:main.c        ****         //UART_PutString(buff);
ARM GAS  C:\Users\IZSOAN~1\AppData\Local\Temp\ccAKDw0U.s 			page 12


 136:main.c        ****     }
 137:main.c        **** }
 138:main.c        **** /** Initializes every compontent and sets default values.
 139:main.c        **** */
 140:main.c        **** void init(){
 441              		.loc 1 140 0
 442              		.cfi_startproc
 443              		@ args = 0, pretend = 0, frame = 0
 444              		@ frame_needed = 0, uses_anonymous_args = 0
 445 0000 38B5     		push	{r3, r4, r5, lr}
 446              		.cfi_def_cfa_offset 16
 447              		.cfi_offset 3, -16
 448              		.cfi_offset 4, -12
 449              		.cfi_offset 5, -8
 450              		.cfi_offset 14, -4
 141:main.c        ****     //serial port
 142:main.c        ****     UART_Start();
 451              		.loc 1 142 0
 452 0002 FFF7FEFF 		bl	UART_Start
 453              	.LVL34:
 143:main.c        ****     UART_PutString("Setup running\n\r");
 454              		.loc 1 143 0
 455 0006 2348     		ldr	r0, .L42
 456 0008 FFF7FEFF 		bl	UART_PutString
 457              	.LVL35:
 144:main.c        ****     //non volatile memory
 145:main.c        ****     EEPROM_Start();
 458              		.loc 1 145 0
 459 000c FFF7FEFF 		bl	EEPROM_Start
 460              	.LVL36:
 146:main.c        ****     //start the interrupts
 147:main.c        ****     isr_Timer_StartEx(TimerIT);
 461              		.loc 1 147 0
 462 0010 2148     		ldr	r0, .L42+4
 463 0012 FFF7FEFF 		bl	isr_Timer_StartEx
 464              	.LVL37:
 148:main.c        ****     isr_ADC_StartEx(AdcIT);
 465              		.loc 1 148 0
 466 0016 2148     		ldr	r0, .L42+8
 467 0018 FFF7FEFF 		bl	isr_ADC_StartEx
 468              	.LVL38:
 149:main.c        ****     //start the circuit elements
 150:main.c        ****     opamp_1_Start();
 469              		.loc 1 150 0
 470 001c FFF7FEFF 		bl	opamp_1_Start
 471              	.LVL39:
 151:main.c        ****     AMux_1_Start();
 472              		.loc 1 151 0
 473 0020 FFF7FEFF 		bl	AMux_1_Start
 474              	.LVL40:
 152:main.c        ****     ADC_Start();
 475              		.loc 1 152 0
 476 0024 FFF7FEFF 		bl	ADC_Start
 477              	.LVL41:
 153:main.c        ****     isr_ADC_Disable();
 478              		.loc 1 153 0
 479 0028 FFF7FEFF 		bl	isr_ADC_Disable
ARM GAS  C:\Users\IZSOAN~1\AppData\Local\Temp\ccAKDw0U.s 			page 13


 480              	.LVL42:
 154:main.c        ****     ADC_StartConvert();
 481              		.loc 1 154 0
 482 002c FFF7FEFF 		bl	ADC_StartConvert
 483              	.LVL43:
 155:main.c        ****     //start PWMs
 156:main.c        ****     PWM_B_Start();
 484              		.loc 1 156 0
 485 0030 FFF7FEFF 		bl	PWM_B_Start
 486              	.LVL44:
 157:main.c        ****     PWM_B_WriteCompare(0);
 487              		.loc 1 157 0
 488 0034 0020     		movs	r0, #0
 489 0036 FFF7FEFF 		bl	PWM_B_WriteCompare
 490              	.LVL45:
 158:main.c        ****     PWM_R_Start();
 491              		.loc 1 158 0
 492 003a FFF7FEFF 		bl	PWM_R_Start
 493              	.LVL46:
 159:main.c        ****     PWM_R_WriteCompare(0);
 494              		.loc 1 159 0
 495 003e 0020     		movs	r0, #0
 496 0040 FFF7FEFF 		bl	PWM_R_WriteCompare
 497              	.LVL47:
 160:main.c        ****     PWM_G_Start();
 498              		.loc 1 160 0
 499 0044 FFF7FEFF 		bl	PWM_G_Start
 500              	.LVL48:
 161:main.c        ****     PWM_G_WriteCompare(0);
 501              		.loc 1 161 0
 502 0048 0020     		movs	r0, #0
 503 004a FFF7FEFF 		bl	PWM_G_WriteCompare
 504              	.LVL49:
 162:main.c        ****     //start the main timer
 163:main.c        ****     Timer_1_Start();
 505              		.loc 1 163 0
 506 004e FFF7FEFF 		bl	Timer_1_Start
 507              	.LVL50:
 164:main.c        ****     
 165:main.c        ****     //initialize the state machine
 166:main.c        ****     nextState = EEPROM_ReadByte(STATE_ADDR);
 508              		.loc 1 166 0
 509 0052 0020     		movs	r0, #0
 510 0054 FFF7FEFF 		bl	EEPROM_ReadByte
 511              	.LVL51:
 512 0058 0246     		mov	r2, r0
 513 005a 114D     		ldr	r5, .L42+12
 514 005c A872     		strb	r0, [r5, #10]
 167:main.c        ****     sprintf(buff, "Init state: %d\n\r", nextState);
 515              		.loc 1 167 0
 516 005e 114C     		ldr	r4, .L42+16
 517 0060 1149     		ldr	r1, .L42+20
 518 0062 2046     		mov	r0, r4
 519 0064 FFF7FEFF 		bl	sprintf
 520              	.LVL52:
 168:main.c        ****     UART_PutString(buff);
 521              		.loc 1 168 0
ARM GAS  C:\Users\IZSOAN~1\AppData\Local\Temp\ccAKDw0U.s 			page 14


 522 0068 2046     		mov	r0, r4
 523 006a FFF7FEFF 		bl	UART_PutString
 524              	.LVL53:
 169:main.c        ****     //initialize the input
 170:main.c        ****     setInput(EEPROM_ReadByte(SRC_ADDR));
 525              		.loc 1 170 0
 526 006e 0120     		movs	r0, #1
 527 0070 FFF7FEFF 		bl	EEPROM_ReadByte
 528              	.LVL54:
 529 0074 FFF7FEFF 		bl	setInput
 530              	.LVL55:
 171:main.c        ****     sprintf(buff, "Init source: %d\n\r", srcChannel);
 531              		.loc 1 171 0
 532 0078 2A78     		ldrb	r2, [r5]	@ zero_extendqisi2
 533 007a 0C49     		ldr	r1, .L42+24
 534 007c 2046     		mov	r0, r4
 535 007e FFF7FEFF 		bl	sprintf
 536              	.LVL56:
 172:main.c        ****     UART_PutString(buff);
 537              		.loc 1 172 0
 538 0082 2046     		mov	r0, r4
 539 0084 FFF7FEFF 		bl	UART_PutString
 540              	.LVL57:
 173:main.c        ****    
 174:main.c        ****     //repotrt we finished the setup
 175:main.c        ****     UART_PutString("Setup done. Enabling Global IT\n\r");
 541              		.loc 1 175 0
 542 0088 0948     		ldr	r0, .L42+28
 543 008a FFF7FEFF 		bl	UART_PutString
 544              	.LVL58:
 176:main.c        ****     //enable global interrupts
 177:main.c        ****     CyGlobalIntEnable;
 545              		.loc 1 177 0
 546              		.syntax unified
 547              	@ 177 "main.c" 1
 548 008e 62B6     		CPSIE   i
 549              	@ 0 "" 2
 550              		.thumb
 551              		.syntax unified
 552 0090 38BD     		pop	{r3, r4, r5, pc}
 553              	.L43:
 554 0092 00BF     		.align	2
 555              	.L42:
 556 0094 14000000 		.word	.LC1
 557 0098 00000000 		.word	TimerIT
 558 009c 00000000 		.word	AdcIT
 559 00a0 00000000 		.word	.LANCHOR0
 560 00a4 00000000 		.word	buff
 561 00a8 24000000 		.word	.LC2
 562 00ac 38000000 		.word	.LC3
 563 00b0 4C000000 		.word	.LC4
 564              		.cfi_endproc
 565              	.LFE68:
 566              		.size	init, .-init
 567              		.section	.text.main,"ax",%progbits
 568              		.align	2
 569              		.global	main
ARM GAS  C:\Users\IZSOAN~1\AppData\Local\Temp\ccAKDw0U.s 			page 15


 570              		.thumb
 571              		.thumb_func
 572              		.type	main, %function
 573              	main:
 574              	.LFB69:
 178:main.c        **** }
 179:main.c        **** /** The main program running the state machine.
 180:main.c        ****   * After a little "setup ready" lightshow, it starts the loop with the state machine running in it
 181:main.c        **** */
 182:main.c        **** int main(void)
 183:main.c        **** {   
 575              		.loc 1 183 0
 576              		.cfi_startproc
 577              		@ args = 0, pretend = 0, frame = 0
 578              		@ frame_needed = 0, uses_anonymous_args = 0
 579 0000 08B5     		push	{r3, lr}
 580              		.cfi_def_cfa_offset 8
 581              		.cfi_offset 3, -8
 582              		.cfi_offset 14, -4
 184:main.c        ****     init();
 583              		.loc 1 184 0
 584 0002 FFF7FEFF 		bl	init
 585              	.LVL59:
 185:main.c        ****     //Feedback for the user that setup is ready and the LEDs are working
 186:main.c        ****     PWM_B_WriteCompare(255);
 586              		.loc 1 186 0
 587 0006 FF20     		movs	r0, #255
 588 0008 FFF7FEFF 		bl	PWM_B_WriteCompare
 589              	.LVL60:
 187:main.c        ****     CyDelay(500);
 590              		.loc 1 187 0
 591 000c 4FF4FA70 		mov	r0, #500
 592 0010 FFF7FEFF 		bl	CyDelay
 593              	.LVL61:
 188:main.c        ****     PWM_B_WriteCompare(0);
 594              		.loc 1 188 0
 595 0014 0020     		movs	r0, #0
 596 0016 FFF7FEFF 		bl	PWM_B_WriteCompare
 597              	.LVL62:
 189:main.c        ****     PWM_G_WriteCompare(255);
 598              		.loc 1 189 0
 599 001a FF20     		movs	r0, #255
 600 001c FFF7FEFF 		bl	PWM_G_WriteCompare
 601              	.LVL63:
 190:main.c        ****     CyDelay(500);
 602              		.loc 1 190 0
 603 0020 4FF4FA70 		mov	r0, #500
 604 0024 FFF7FEFF 		bl	CyDelay
 605              	.LVL64:
 191:main.c        ****     PWM_G_WriteCompare(0);
 606              		.loc 1 191 0
 607 0028 0020     		movs	r0, #0
 608 002a FFF7FEFF 		bl	PWM_G_WriteCompare
 609              	.LVL65:
 192:main.c        ****     PWM_R_WriteCompare(255);
 610              		.loc 1 192 0
 611 002e FF20     		movs	r0, #255
ARM GAS  C:\Users\IZSOAN~1\AppData\Local\Temp\ccAKDw0U.s 			page 16


 612 0030 FFF7FEFF 		bl	PWM_R_WriteCompare
 613              	.LVL66:
 193:main.c        ****     CyDelay(500);
 614              		.loc 1 193 0
 615 0034 4FF4FA70 		mov	r0, #500
 616 0038 FFF7FEFF 		bl	CyDelay
 617              	.LVL67:
 194:main.c        ****     PWM_R_WriteCompare(0);
 618              		.loc 1 194 0
 619 003c 0020     		movs	r0, #0
 620 003e FFF7FEFF 		bl	PWM_R_WriteCompare
 621              	.LVL68:
 622              	.L70:
 195:main.c        ****     
 196:main.c        ****     //The state machine. In every state it calls the right lightshows display function.
 197:main.c        ****     //The currentState is updated in the case block, so it is possible to detect in the state if we
 198:main.c        ****     for(;;)
 199:main.c        ****     {
 200:main.c        ****         //if we changed the state from audio turn off the ADC to prevent unnecessary interrupts and
 201:main.c        ****         if(nextState != Audio && currentState == Audio)
 623              		.loc 1 201 0
 624 0042 574B     		ldr	r3, .L72
 625 0044 9B7A     		ldrb	r3, [r3, #10]	@ zero_extendqisi2
 626 0046 032B     		cmp	r3, #3
 627 0048 05D0     		beq	.L45
 628              		.loc 1 201 0 is_stmt 0 discriminator 1
 629 004a 564B     		ldr	r3, .L72+4
 630 004c 1B78     		ldrb	r3, [r3]	@ zero_extendqisi2
 631 004e 032B     		cmp	r3, #3
 632 0050 01D1     		bne	.L45
 202:main.c        ****             isr_ADC_Disable();
 633              		.loc 1 202 0 is_stmt 1
 634 0052 FFF7FEFF 		bl	isr_ADC_Disable
 635              	.LVL69:
 636              	.L45:
 203:main.c        ****             
 204:main.c        ****         //run the main state machine
 205:main.c        ****         //call the 'do' method of the currently displayed lightshow
 206:main.c        ****         switch(nextState){
 637              		.loc 1 206 0
 638 0056 524B     		ldr	r3, .L72
 639 0058 9B7A     		ldrb	r3, [r3, #10]	@ zero_extendqisi2
 640 005a 032B     		cmp	r3, #3
 641 005c 26D8     		bhi	.L46
 642 005e DFE803F0 		tbb	[pc, r3]
 643              	.L48:
 644 0062 02       		.byte	(.L47-.L48)/2
 645 0063 07       		.byte	(.L49-.L48)/2
 646 0064 0C       		.byte	(.L50-.L48)/2
 647 0065 11       		.byte	(.L51-.L48)/2
 648              		.p2align 1
 649              	.L47:
 207:main.c        ****             case Cycle:
 208:main.c        ****                 updateState();
 650              		.loc 1 208 0
 651 0066 FFF7FEFF 		bl	updateState
 652              	.LVL70:
ARM GAS  C:\Users\IZSOAN~1\AppData\Local\Temp\ccAKDw0U.s 			page 17


 209:main.c        ****                 doCycle();
 653              		.loc 1 209 0
 654 006a FFF7FEFF 		bl	doCycle
 655              	.LVL71:
 210:main.c        ****                 break;
 656              		.loc 1 210 0
 657 006e 92E0     		b	.L52
 658              	.L49:
 211:main.c        ****             case RedGreenBlue:
 212:main.c        ****                 updateState();
 659              		.loc 1 212 0
 660 0070 FFF7FEFF 		bl	updateState
 661              	.LVL72:
 213:main.c        ****                 doRedGreenBlue();
 662              		.loc 1 213 0
 663 0074 FFF7FEFF 		bl	doRedGreenBlue
 664              	.LVL73:
 214:main.c        ****                 break;
 665              		.loc 1 214 0
 666 0078 8DE0     		b	.L52
 667              	.L50:
 215:main.c        ****              case Police:
 216:main.c        ****                 updateState();
 668              		.loc 1 216 0
 669 007a FFF7FEFF 		bl	updateState
 670              	.LVL74:
 217:main.c        ****                 doPolice();
 671              		.loc 1 217 0
 672 007e FFF7FEFF 		bl	doPolice
 673              	.LVL75:
 218:main.c        ****                 break;
 674              		.loc 1 218 0
 675 0082 88E0     		b	.L52
 676              	.L51:
 219:main.c        ****             case Audio:
 220:main.c        ****                 if(currentState != Audio){
 677              		.loc 1 220 0
 678 0084 474B     		ldr	r3, .L72+4
 679 0086 1B78     		ldrb	r3, [r3]	@ zero_extendqisi2
 680 0088 032B     		cmp	r3, #3
 681 008a 06D0     		beq	.L54
 221:main.c        ****                     isr_ADC_Enable();
 682              		.loc 1 221 0
 683 008c FFF7FEFF 		bl	isr_ADC_Enable
 684              	.LVL76:
 222:main.c        ****                     setColor(0,0,0);
 685              		.loc 1 222 0
 686 0090 0022     		movs	r2, #0
 687 0092 1146     		mov	r1, r2
 688 0094 1046     		mov	r0, r2
 689 0096 FFF7FEFF 		bl	setColor
 690              	.LVL77:
 691              	.L54:
 223:main.c        ****                 }
 224:main.c        ****                 updateState();
 692              		.loc 1 224 0
 693 009a FFF7FEFF 		bl	updateState
ARM GAS  C:\Users\IZSOAN~1\AppData\Local\Temp\ccAKDw0U.s 			page 18


 694              	.LVL78:
 225:main.c        ****                 isr_Timer_Disable();
 695              		.loc 1 225 0
 696 009e FFF7FEFF 		bl	isr_Timer_Disable
 697              	.LVL79:
 226:main.c        ****                 doAudio();
 698              		.loc 1 226 0
 699 00a2 FFF7FEFF 		bl	doAudio
 700              	.LVL80:
 227:main.c        ****                 isr_Timer_Enable();
 701              		.loc 1 227 0
 702 00a6 FFF7FEFF 		bl	isr_Timer_Enable
 703              	.LVL81:
 228:main.c        ****                 break;
 704              		.loc 1 228 0
 705 00aa 74E0     		b	.L52
 706              	.L46:
 229:main.c        ****             default:
 230:main.c        ****                 nextState = Cycle;
 707              		.loc 1 230 0
 708 00ac 0022     		movs	r2, #0
 709 00ae 3C4B     		ldr	r3, .L72
 710 00b0 9A72     		strb	r2, [r3, #10]
 231:main.c        ****                 updateState();
 711              		.loc 1 231 0
 712 00b2 FFF7FEFF 		bl	updateState
 713              	.LVL82:
 232:main.c        ****                 break;
 714              		.loc 1 232 0
 715 00b6 6EE0     		b	.L52
 716              	.L69:
 717              	.LBB7:
 233:main.c        ****         }
 234:main.c        ****         
 235:main.c        ****         //after each cycle read the UART input if there's data received
 236:main.c        ****         //change the next state or the input accordingly
 237:main.c        ****         while(UART_GetRxBufferSize()){
 238:main.c        ****             char c = UART_GetChar();
 718              		.loc 1 238 0
 719 00b8 FFF7FEFF 		bl	UART_GetChar
 720              	.LVL83:
 239:main.c        ****             if(c == 'T'){
 721              		.loc 1 239 0
 722 00bc 5428     		cmp	r0, #84
 723 00be 06D1     		bne	.L55
 240:main.c        ****                 terminalEnabled = true;
 724              		.loc 1 240 0
 725 00c0 0122     		movs	r2, #1
 726 00c2 394B     		ldr	r3, .L72+8
 727 00c4 1A70     		strb	r2, [r3]
 241:main.c        ****                 UART_PutString("Terminal control enabled\n\r");
 728              		.loc 1 241 0
 729 00c6 3948     		ldr	r0, .L72+12
 730              	.LVL84:
 731 00c8 FFF7FEFF 		bl	UART_PutString
 732              	.LVL85:
 733 00cc 63E0     		b	.L52
ARM GAS  C:\Users\IZSOAN~1\AppData\Local\Temp\ccAKDw0U.s 			page 19


 734              	.LVL86:
 735              	.L55:
 242:main.c        ****             }else if(c == 'E'){
 736              		.loc 1 242 0
 737 00ce 4528     		cmp	r0, #69
 738 00d0 06D1     		bne	.L57
 243:main.c        ****                 terminalEnabled = false;
 739              		.loc 1 243 0
 740 00d2 0022     		movs	r2, #0
 741 00d4 344B     		ldr	r3, .L72+8
 742 00d6 1A70     		strb	r2, [r3]
 244:main.c        ****                 UART_PutString("Terminal control disabled\n\r");
 743              		.loc 1 244 0
 744 00d8 3548     		ldr	r0, .L72+16
 745              	.LVL87:
 746 00da FFF7FEFF 		bl	UART_PutString
 747              	.LVL88:
 748 00de 5AE0     		b	.L52
 749              	.LVL89:
 750              	.L57:
 245:main.c        ****             }else if(terminalEnabled){
 751              		.loc 1 245 0
 752 00e0 314B     		ldr	r3, .L72+8
 753 00e2 1B78     		ldrb	r3, [r3]	@ zero_extendqisi2
 754 00e4 002B     		cmp	r3, #0
 755 00e6 56D0     		beq	.L52
 246:main.c        ****                 switch(c){
 756              		.loc 1 246 0
 757 00e8 4138     		subs	r0, r0, #65
 758              	.LVL90:
 759 00ea 1228     		cmp	r0, #18
 760 00ec 50D8     		bhi	.L58
 761 00ee DFE800F0 		tbb	[pc, r0]
 762              	.L60:
 763 00f2 1F       		.byte	(.L59-.L60)/2
 764 00f3 4F       		.byte	(.L58-.L60)/2
 765 00f4 0A       		.byte	(.L61-.L60)/2
 766 00f5 4F       		.byte	(.L58-.L60)/2
 767 00f6 4F       		.byte	(.L58-.L60)/2
 768 00f7 4F       		.byte	(.L58-.L60)/2
 769 00f8 4F       		.byte	(.L58-.L60)/2
 770 00f9 4F       		.byte	(.L58-.L60)/2
 771 00fa 4F       		.byte	(.L58-.L60)/2
 772 00fb 36       		.byte	(.L62-.L60)/2
 773 00fc 4F       		.byte	(.L58-.L60)/2
 774 00fd 4F       		.byte	(.L58-.L60)/2
 775 00fe 3D       		.byte	(.L63-.L60)/2
 776 00ff 26       		.byte	(.L64-.L60)/2
 777 0100 4F       		.byte	(.L58-.L60)/2
 778 0101 18       		.byte	(.L65-.L60)/2
 779 0102 4F       		.byte	(.L58-.L60)/2
 780 0103 11       		.byte	(.L66-.L60)/2
 781 0104 44       		.byte	(.L67-.L60)/2
 782 0105 00       		.p2align 1
 783              	.L61:
 247:main.c        ****                     case 'C': nextState = Cycle;
 784              		.loc 1 247 0
ARM GAS  C:\Users\IZSOAN~1\AppData\Local\Temp\ccAKDw0U.s 			page 20


 785 0106 0022     		movs	r2, #0
 786 0108 254B     		ldr	r3, .L72
 787 010a 9A72     		strb	r2, [r3, #10]
 248:main.c        ****                               UART_PutString("Change to Cycle\n\r");
 788              		.loc 1 248 0
 789 010c 2948     		ldr	r0, .L72+20
 790 010e FFF7FEFF 		bl	UART_PutString
 791              	.LVL91:
 249:main.c        ****                         break;
 792              		.loc 1 249 0
 793 0112 40E0     		b	.L52
 794              	.L66:
 250:main.c        ****                     case 'R': nextState = RedGreenBlue;
 795              		.loc 1 250 0
 796 0114 0122     		movs	r2, #1
 797 0116 224B     		ldr	r3, .L72
 798 0118 9A72     		strb	r2, [r3, #10]
 251:main.c        ****                               UART_PutString("Change to RedGreenBlue\n\r");
 799              		.loc 1 251 0
 800 011a 2748     		ldr	r0, .L72+24
 801 011c FFF7FEFF 		bl	UART_PutString
 802              	.LVL92:
 252:main.c        ****                         break;
 803              		.loc 1 252 0
 804 0120 39E0     		b	.L52
 805              	.L65:
 253:main.c        ****                     case 'P': nextState = Police;
 806              		.loc 1 253 0
 807 0122 0222     		movs	r2, #2
 808 0124 1E4B     		ldr	r3, .L72
 809 0126 9A72     		strb	r2, [r3, #10]
 254:main.c        ****                               UART_PutString("Change to Police\n\r");
 810              		.loc 1 254 0
 811 0128 2448     		ldr	r0, .L72+28
 812 012a FFF7FEFF 		bl	UART_PutString
 813              	.LVL93:
 255:main.c        ****                         break;
 814              		.loc 1 255 0
 815 012e 32E0     		b	.L52
 816              	.L59:
 256:main.c        ****                     case 'A': nextState = Audio;
 817              		.loc 1 256 0
 818 0130 0322     		movs	r2, #3
 819 0132 1B4B     		ldr	r3, .L72
 820 0134 9A72     		strb	r2, [r3, #10]
 257:main.c        ****                               UART_PutString("Change to Audio\n\r");
 821              		.loc 1 257 0
 822 0136 2248     		ldr	r0, .L72+32
 823 0138 FFF7FEFF 		bl	UART_PutString
 824              	.LVL94:
 258:main.c        ****                         break;
 825              		.loc 1 258 0
 826 013c 2BE0     		b	.L52
 827              	.L64:
 259:main.c        ****                     case 'N': nextState = (currentState+1)%StateNo;
 828              		.loc 1 259 0
 829 013e 194B     		ldr	r3, .L72+4
ARM GAS  C:\Users\IZSOAN~1\AppData\Local\Temp\ccAKDw0U.s 			page 21


 830 0140 1B78     		ldrb	r3, [r3]	@ zero_extendqisi2
 831 0142 0133     		adds	r3, r3, #1
 832 0144 1F4A     		ldr	r2, .L72+36
 833 0146 1340     		ands	r3, r3, r2
 834 0148 03D5     		bpl	.L68
 835 014a 013B     		subs	r3, r3, #1
 836 014c 63F00303 		orn	r3, r3, #3
 837 0150 0133     		adds	r3, r3, #1
 838              	.L68:
 839 0152 134A     		ldr	r2, .L72
 840 0154 9372     		strb	r3, [r2, #10]
 260:main.c        ****                               UART_PutString("Change to next lightshow\n\r");
 841              		.loc 1 260 0
 842 0156 1C48     		ldr	r0, .L72+40
 843 0158 FFF7FEFF 		bl	UART_PutString
 844              	.LVL95:
 261:main.c        ****                         break;
 845              		.loc 1 261 0
 846 015c 1BE0     		b	.L52
 847              	.L62:
 262:main.c        ****                     case 'J': 
 263:main.c        ****                               setInput(Jack);
 848              		.loc 1 263 0
 849 015e 0120     		movs	r0, #1
 850 0160 FFF7FEFF 		bl	setInput
 851              	.LVL96:
 264:main.c        ****                               UART_PutString("Switch to jack\n\r");
 852              		.loc 1 264 0
 853 0164 1948     		ldr	r0, .L72+44
 854 0166 FFF7FEFF 		bl	UART_PutString
 855              	.LVL97:
 265:main.c        ****                         break;
 856              		.loc 1 265 0
 857 016a 14E0     		b	.L52
 858              	.L63:
 266:main.c        ****                     case 'M':
 267:main.c        ****                               setInput(Mic);
 859              		.loc 1 267 0
 860 016c 0020     		movs	r0, #0
 861 016e FFF7FEFF 		bl	setInput
 862              	.LVL98:
 268:main.c        ****                               UART_PutString("Switch to mic\n\r");
 863              		.loc 1 268 0
 864 0172 1748     		ldr	r0, .L72+48
 865 0174 FFF7FEFF 		bl	UART_PutString
 866              	.LVL99:
 269:main.c        ****                         break;
 867              		.loc 1 269 0
 868 0178 0DE0     		b	.L52
 869              	.L67:
 270:main.c        ****                     case 'S':
 271:main.c        ****                               setInput(!srcChannel);
 870              		.loc 1 271 0
 871 017a 094B     		ldr	r3, .L72
 872 017c 1878     		ldrb	r0, [r3]	@ zero_extendqisi2
 873 017e B0FA80F0 		clz	r0, r0
 874 0182 4009     		lsrs	r0, r0, #5
ARM GAS  C:\Users\IZSOAN~1\AppData\Local\Temp\ccAKDw0U.s 			page 22


 875 0184 FFF7FEFF 		bl	setInput
 876              	.LVL100:
 272:main.c        ****                               UART_PutString("Switch input\n\r");
 877              		.loc 1 272 0
 878 0188 1248     		ldr	r0, .L72+52
 879 018a FFF7FEFF 		bl	UART_PutString
 880              	.LVL101:
 273:main.c        ****                         break;
 881              		.loc 1 273 0
 882 018e 02E0     		b	.L52
 883              	.L58:
 274:main.c        ****                     default:
 275:main.c        ****                         UART_PutString("Unknown command\n\r");
 884              		.loc 1 275 0
 885 0190 1148     		ldr	r0, .L72+56
 886 0192 FFF7FEFF 		bl	UART_PutString
 887              	.LVL102:
 888              	.L52:
 889              	.LBE7:
 237:main.c        ****             char c = UART_GetChar();
 890              		.loc 1 237 0
 891 0196 FFF7FEFF 		bl	UART_GetRxBufferSize
 892              	.LVL103:
 893 019a 0028     		cmp	r0, #0
 894 019c 8CD1     		bne	.L69
 895 019e 50E7     		b	.L70
 896              	.L73:
 897              		.align	2
 898              	.L72:
 899 01a0 00000000 		.word	.LANCHOR0
 900 01a4 00000000 		.word	currentState
 901 01a8 00000000 		.word	.LANCHOR1
 902 01ac 70000000 		.word	.LC5
 903 01b0 8C000000 		.word	.LC6
 904 01b4 A8000000 		.word	.LC7
 905 01b8 BC000000 		.word	.LC8
 906 01bc D8000000 		.word	.LC9
 907 01c0 EC000000 		.word	.LC10
 908 01c4 03000080 		.word	-2147483645
 909 01c8 00010000 		.word	.LC11
 910 01cc 1C010000 		.word	.LC12
 911 01d0 30010000 		.word	.LC13
 912 01d4 40010000 		.word	.LC14
 913 01d8 50010000 		.word	.LC15
 914              		.cfi_endproc
 915              	.LFE69:
 916              		.size	main, .-main
 917              		.global	srcChannel
 918              		.global	sw_srcStatus
 919              		.global	sw_modeStatus
 920              		.global	nextState
 921              		.comm	currentState,1,1
 922              		.global	terminalEnabled
 923              		.comm	buff,40,4
 924              		.data
 925              		.align	2
 926              		.set	.LANCHOR0,. + 0
ARM GAS  C:\Users\IZSOAN~1\AppData\Local\Temp\ccAKDw0U.s 			page 23


 927              		.type	srcChannel, %object
 928              		.size	srcChannel, 1
 929              	srcChannel:
 930 0000 FF       		.byte	-1
 931 0001 000000   		.space	3
 932              		.type	sw_modePrev.7032, %object
 933              		.size	sw_modePrev.7032, 5
 934              	sw_modePrev.7032:
 935 0004 01       		.byte	1
 936 0005 01       		.byte	1
 937 0006 01       		.byte	1
 938 0007 01       		.byte	1
 939 0008 01       		.byte	1
 940              		.type	sw_modeStatus, %object
 941              		.size	sw_modeStatus, 1
 942              	sw_modeStatus:
 943 0009 01       		.byte	1
 944              		.type	nextState, %object
 945              		.size	nextState, 1
 946              	nextState:
 947 000a FF       		.byte	-1
 948 000b 00       		.space	1
 949              		.type	sw_srcPrev.7033, %object
 950              		.size	sw_srcPrev.7033, 5
 951              	sw_srcPrev.7033:
 952 000c 01       		.byte	1
 953 000d 01       		.byte	1
 954 000e 01       		.byte	1
 955 000f 01       		.byte	1
 956 0010 01       		.byte	1
 957              		.type	sw_srcStatus, %object
 958              		.size	sw_srcStatus, 1
 959              	sw_srcStatus:
 960 0011 01       		.byte	1
 961              		.section	.rodata.str1.4,"aMS",%progbits,1
 962              		.align	2
 963              	.LC0:
 964 0000 53746174 		.ascii	"State changed: %d\012\015\000"
 964      65206368 
 964      616E6765 
 964      643A2025 
 964      640A0D00 
 965              	.LC1:
 966 0014 53657475 		.ascii	"Setup running\012\015\000"
 966      70207275 
 966      6E6E696E 
 966      670A0D00 
 967              	.LC2:
 968 0024 496E6974 		.ascii	"Init state: %d\012\015\000"
 968      20737461 
 968      74653A20 
 968      25640A0D 
 968      00
 969 0035 000000   		.space	3
 970              	.LC3:
 971 0038 496E6974 		.ascii	"Init source: %d\012\015\000"
 971      20736F75 
ARM GAS  C:\Users\IZSOAN~1\AppData\Local\Temp\ccAKDw0U.s 			page 24


 971      7263653A 
 971      2025640A 
 971      0D00
 972 004a 0000     		.space	2
 973              	.LC4:
 974 004c 53657475 		.ascii	"Setup done. Enabling Global IT\012\015\000"
 974      7020646F 
 974      6E652E20 
 974      456E6162 
 974      6C696E67 
 975 006d 000000   		.space	3
 976              	.LC5:
 977 0070 5465726D 		.ascii	"Terminal control enabled\012\015\000"
 977      696E616C 
 977      20636F6E 
 977      74726F6C 
 977      20656E61 
 978 008b 00       		.space	1
 979              	.LC6:
 980 008c 5465726D 		.ascii	"Terminal control disabled\012\015\000"
 980      696E616C 
 980      20636F6E 
 980      74726F6C 
 980      20646973 
 981              	.LC7:
 982 00a8 4368616E 		.ascii	"Change to Cycle\012\015\000"
 982      67652074 
 982      6F204379 
 982      636C650A 
 982      0D00
 983 00ba 0000     		.space	2
 984              	.LC8:
 985 00bc 4368616E 		.ascii	"Change to RedGreenBlue\012\015\000"
 985      67652074 
 985      6F205265 
 985      64477265 
 985      656E426C 
 986 00d5 000000   		.space	3
 987              	.LC9:
 988 00d8 4368616E 		.ascii	"Change to Police\012\015\000"
 988      67652074 
 988      6F20506F 
 988      6C696365 
 988      0A0D00
 989 00eb 00       		.space	1
 990              	.LC10:
 991 00ec 4368616E 		.ascii	"Change to Audio\012\015\000"
 991      67652074 
 991      6F204175 
 991      64696F0A 
 991      0D00
 992 00fe 0000     		.space	2
 993              	.LC11:
 994 0100 4368616E 		.ascii	"Change to next lightshow\012\015\000"
 994      67652074 
 994      6F206E65 
 994      7874206C 
ARM GAS  C:\Users\IZSOAN~1\AppData\Local\Temp\ccAKDw0U.s 			page 25


 994      69676874 
 995 011b 00       		.space	1
 996              	.LC12:
 997 011c 53776974 		.ascii	"Switch to jack\012\015\000"
 997      63682074 
 997      6F206A61 
 997      636B0A0D 
 997      00
 998 012d 000000   		.space	3
 999              	.LC13:
 1000 0130 53776974 		.ascii	"Switch to mic\012\015\000"
 1000      63682074 
 1000      6F206D69 
 1000      630A0D00 
 1001              	.LC14:
 1002 0140 53776974 		.ascii	"Switch input\012\015\000"
 1002      63682069 
 1002      6E707574 
 1002      0A0D00
 1003 014f 00       		.space	1
 1004              	.LC15:
 1005 0150 556E6B6E 		.ascii	"Unknown command\012\015\000"
 1005      6F776E20 
 1005      636F6D6D 
 1005      616E640A 
 1005      0D00
 1006              		.bss
 1007              		.set	.LANCHOR1,. + 0
 1008              		.type	terminalEnabled, %object
 1009              		.size	terminalEnabled, 1
 1010              	terminalEnabled:
 1011 0000 00       		.space	1
 1012              		.type	i.7034, %object
 1013              		.size	i.7034, 1
 1014              	i.7034:
 1015 0001 00       		.space	1
 1016              		.text
 1017              	.Letext0:
 1018              		.file 2 "c:\\program files (x86)\\cypress\\psoc creator\\4.2\\psoc creator\\import\\gnu\\arm\\5.4.
 1019              		.file 3 "c:\\program files (x86)\\cypress\\psoc creator\\4.2\\psoc creator\\import\\gnu\\arm\\5.4.
 1020              		.file 4 "Generated_Source\\PSoC5/cytypes.h"
 1021              		.file 5 "ledlight.h"
 1022              		.file 6 "Generated_Source\\PSoC5/core_cm3.h"
 1023              		.file 7 "Generated_Source\\PSoC5/ADC.h"
 1024              		.file 8 "Generated_Source\\PSoC5/EEPROM.h"
 1025              		.file 9 "Generated_Source\\PSoC5/AMux_1.h"
 1026              		.file 10 "Generated_Source\\PSoC5/LED_JACK.h"
 1027              		.file 11 "Generated_Source\\PSoC5/LED_MIC.h"
 1028              		.file 12 "Generated_Source\\PSoC5/SW_mode.h"
 1029              		.file 13 "Generated_Source\\PSoC5/SW_src.h"
 1030              		.file 14 "c:\\program files (x86)\\cypress\\psoc creator\\4.2\\psoc creator\\import\\gnu\\arm\\5.4
 1031              		.file 15 "Generated_Source\\PSoC5/UART.h"
 1032              		.file 16 "Generated_Source\\PSoC5/isr_Timer.h"
 1033              		.file 17 "Generated_Source\\PSoC5/isr_ADC.h"
 1034              		.file 18 "Generated_Source\\PSoC5/opamp_1.h"
 1035              		.file 19 "Generated_Source\\PSoC5/PWM_B.h"
 1036              		.file 20 "Generated_Source\\PSoC5/PWM_R.h"
ARM GAS  C:\Users\IZSOAN~1\AppData\Local\Temp\ccAKDw0U.s 			page 26


 1037              		.file 21 "Generated_Source\\PSoC5/PWM_G.h"
 1038              		.file 22 "Generated_Source\\PSoC5/Timer_1.h"
 1039              		.file 23 "Generated_Source\\PSoC5/CyLib.h"